; Function Attrs: cold nounwind optsize uwtable
define internal range(i32 -1094995529, 1) i32 @v410_decode_init(ptr noundef initializes((136, 140), (652, 656)) %0) #0 {
  %2 = getelementptr inbounds nuw i8, ptr %0, i64 136
  store i32 68, ptr %2, align 8, !tbaa !4
  %3 = getelementptr inbounds nuw i8, ptr %0, i64 652
  store i32 10, ptr %3, align 4, !tbaa !27
  %4 = getelementptr inbounds nuw i8, ptr %0, i64 112
  %5 = load i32, ptr %4, align 8, !tbaa !28
  %6 = and i32 %5, 1
  %.not = icmp eq i32 %6, 0
  br i1 %.not, label %13, label %7

7:                                                ; preds = %1
  %8 = getelementptr inbounds nuw i8, ptr %0, i64 528
  %9 = load i32, ptr %8, align 8, !tbaa !29
  %10 = and i32 %9, 8
  %.not7 = icmp eq i32 %10, 0
  br i1 %.not7, label %12, label %11

11:                                               ; preds = %7
  tail call void (ptr, i32, ptr, ...) @av_log(ptr noundef nonnull %0, i32 noundef 16, ptr noundef nonnull @.str.2) #6
  br label %14

12:                                               ; preds = %7
  tail call void (ptr, i32, ptr, ...) @av_log(ptr noundef nonnull %0, i32 noundef 24, ptr noundef nonnull @.str.3) #6
  br label %13

13:                                               ; preds = %12, %1
  tail call void (ptr, i32, ptr, ...) @av_log(ptr noundef nonnull %0, i32 noundef 24, ptr noundef nonnull @.str.4) #6
  br label %14

14:                                               ; preds = %13, %11
  %.0 = phi i32 [ -1094995529, %11 ], [ 0, %13 ]
  ret i32 %.0
}